target datalayout = "e-m:e-p270:32:32-p271:32:32-p272:64:64-i64:64-i128:128-f80:128-n8:16:32:64-S128"
target triple = "x86_64-pc-linux-gnu"

%struct.kvs_get_msg = type { i32, i32, i16, ptr }

; Function Attrs: nounwind uwtable
define internal void @_pack_kvs_get(ptr noundef %0, ptr noundef %1, i16 noundef zeroext %2) #0 {
  %4 = alloca ptr, align 8
  %5 = alloca ptr, align 8
  %6 = alloca i16, align 2
  %7 = alloca i32, align 4
  store ptr %0, ptr %4, align 8
  store ptr %1, ptr %5, align 8
  store i16 %2, ptr %6, align 2
  %8 = load ptr, ptr %4, align 8
  %9 = getelementptr inbounds nuw %struct.kvs_get_msg, ptr %8, i32 0, i32 0
  %10 = load i32, ptr %9, align 8
  %11 = load ptr, ptr %5, align 8
  call void @pack32(i32 noundef %10, ptr noundef %11)
  %12 = load ptr, ptr %4, align 8
  %13 = getelementptr inbounds nuw %struct.kvs_get_msg, ptr %12, i32 0, i32 1
  %14 = load i32, ptr %13, align 4
  %15 = load ptr, ptr %5, align 8
  call void @pack32(i32 noundef %14, ptr noundef %15)
  %16 = load ptr, ptr %4, align 8
  %17 = getelementptr inbounds nuw %struct.kvs_get_msg, ptr %16, i32 0, i32 2
  %18 = load i16, ptr %17, align 8
  %19 = load ptr, ptr %5, align 8
  call void @pack16(i16 noundef zeroext %18, ptr noundef %19)
  br label %20

20:                                               ; preds = %3
  call void @llvm.lifetime.start.p0(i64 4, ptr %7) #6
  store i32 0, ptr %7, align 4
  %21 = load ptr, ptr %4, align 8
  %22 = getelementptr inbounds nuw %struct.kvs_get_msg, ptr %21, i32 0, i32 3
  %23 = load ptr, ptr %22, align 8
  %24 = icmp ne ptr %23, null
  br i1 %24, label %25, label %32

25:                                               ; preds = %20
  %26 = load ptr, ptr %4, align 8
  %27 = getelementptr inbounds nuw %struct.kvs_get_msg, ptr %26, i32 0, i32 3
  %28 = load ptr, ptr %27, align 8
  %29 = call i64 @strlen(ptr noundef %28) #7
  %30 = trunc i64 %29 to i32
  %31 = add i32 %30, 1
  store i32 %31, ptr %7, align 4
  br label %32

32:                                               ; preds = %25, %20
  %33 = load ptr, ptr %4, align 8
  %34 = getelementptr inbounds nuw %struct.kvs_get_msg, ptr %33, i32 0, i32 3
  %35 = load ptr, ptr %34, align 8
  %36 = load i32, ptr %7, align 4
  %37 = load ptr, ptr %5, align 8
  call void @packmem(ptr noundef %35, i32 noundef %36, ptr noundef %37)
  call void @llvm.lifetime.end.p0(i64 4, ptr %7) #6
  br label %38

38:                                               ; preds = %32
  ret void
}