; Function Attrs: nounwind uwtable
define internal fastcc void @_pack_kvs_get(ptr noundef readonly captures(none) %0, ptr noundef %1) unnamed_addr #0 {
  %3 = load i32, ptr %0, align 8
  tail call void @pack32(i32 noundef %3, ptr noundef %1) #7
  %4 = getelementptr inbounds nuw i8, ptr %0, i64 4
  %5 = load i32, ptr %4, align 4
  tail call void @pack32(i32 noundef %5, ptr noundef %1) #7
  %6 = getelementptr inbounds nuw i8, ptr %0, i64 8
  %7 = load i16, ptr %6, align 8
  tail call void @pack16(i16 noundef zeroext %7, ptr noundef %1) #7
  %8 = getelementptr inbounds nuw i8, ptr %0, i64 16
  %9 = load ptr, ptr %8, align 8
  %.not = icmp eq ptr %9, null
  br i1 %.not, label %14, label %10

10:                                               ; preds = %2
  %11 = tail call i64 @strlen(ptr noundef nonnull dereferenceable(1) %9) #8
  %12 = trunc i64 %11 to i32
  %13 = add i32 %12, 1
  br label %14

14:                                               ; preds = %10, %2
  %.0 = phi i32 [ %13, %10 ], [ 0, %2 ]
  tail call void @packmem(ptr noundef %9, i32 noundef %.0, ptr noundef %1) #7
  ret void
}